target datalayout = "e-m:e-p270:32:32-p271:32:32-p272:64:64-i64:64-i128:128-f80:128-n8:16:32:64-S128"
target triple = "x86_64-pc-linux-gnu"

%struct.cmsCIExyY = type { double, double, double }
%struct.ISOTEMPERATURE = type { double, double, double, double }

; Function Attrs: nounwind uwtable
define hidden i32 @cmsTempFromWhitePoint(ptr noundef %0, ptr noundef %1) #0 {
  %3 = alloca i32, align 4
  %4 = alloca ptr, align 8
  %5 = alloca ptr, align 8
  %6 = alloca i32, align 4
  %7 = alloca double, align 8
  %8 = alloca double, align 8
  %9 = alloca double, align 8
  %10 = alloca double, align 8
  %11 = alloca double, align 8
  %12 = alloca double, align 8
  %13 = alloca double, align 8
  %14 = alloca double, align 8
  %15 = alloca double, align 8
  %16 = alloca double, align 8
  %17 = alloca double, align 8
  store ptr %0, ptr %4, align 8
  store ptr %1, ptr %5, align 8
  store double 0.000000e+00, ptr %14, align 8
  store double 0.000000e+00, ptr %12, align 8
  %18 = load ptr, ptr %5, align 8
  %19 = getelementptr inbounds %struct.cmsCIExyY, ptr %18, i32 0, i32 0
  %20 = load double, ptr %19, align 8
  store double %20, ptr %16, align 8
  %21 = load ptr, ptr %5, align 8
  %22 = getelementptr inbounds %struct.cmsCIExyY, ptr %21, i32 0, i32 1
  %23 = load double, ptr %22, align 8
  store double %23, ptr %17, align 8
  %24 = load double, ptr %16, align 8
  %25 = fmul double 2.000000e+00, %24
  %26 = load double, ptr %16, align 8
  %27 = fneg double %26
  %28 = load double, ptr %17, align 8
  %29 = call double @llvm.fmuladd.f64(double 6.000000e+00, double %28, double %27)
  %30 = fadd double %29, 1.500000e+00
  %31 = fdiv double %25, %30
  store double %31, ptr %7, align 8
  %32 = load double, ptr %17, align 8
  %33 = fmul double 3.000000e+00, %32
  %34 = load double, ptr %16, align 8
  %35 = fneg double %34
  %36 = load double, ptr %17, align 8
  %37 = call double @llvm.fmuladd.f64(double 6.000000e+00, double %36, double %35)
  %38 = fadd double %37, 1.500000e+00
  %39 = fdiv double %33, %38
  store double %39, ptr %8, align 8
  store i32 0, ptr %6, align 4
  br label %40

40:                                               ; preds = %102, %2
  %41 = load i32, ptr %6, align 4
  %42 = zext i32 %41 to i64
  %43 = icmp ult i64 %42, 31
  br i1 %43, label %44, label %105

44:                                               ; preds = %40
  %45 = load i32, ptr %6, align 4
  %46 = zext i32 %45 to i64
  %47 = getelementptr inbounds [31 x %struct.ISOTEMPERATURE], ptr @isotempdata, i64 0, i64 %46
  %48 = getelementptr inbounds %struct.ISOTEMPERATURE, ptr %47, i32 0, i32 1
  %49 = load double, ptr %48, align 8
  store double %49, ptr %9, align 8
  %50 = load i32, ptr %6, align 4
  %51 = zext i32 %50 to i64
  %52 = getelementptr inbounds [31 x %struct.ISOTEMPERATURE], ptr @isotempdata, i64 0, i64 %51
  %53 = getelementptr inbounds %struct.ISOTEMPERATURE, ptr %52, i32 0, i32 2
  %54 = load double, ptr %53, align 16
  store double %54, ptr %10, align 8
  %55 = load i32, ptr %6, align 4
  %56 = zext i32 %55 to i64
  %57 = getelementptr inbounds [31 x %struct.ISOTEMPERATURE], ptr @isotempdata, i64 0, i64 %56
  %58 = getelementptr inbounds %struct.ISOTEMPERATURE, ptr %57, i32 0, i32 3
  %59 = load double, ptr %58, align 8
  store double %59, ptr %11, align 8
  %60 = load i32, ptr %6, align 4
  %61 = zext i32 %60 to i64
  %62 = getelementptr inbounds [31 x %struct.ISOTEMPERATURE], ptr @isotempdata, i64 0, i64 %61
  %63 = getelementptr inbounds %struct.ISOTEMPERATURE, ptr %62, i32 0, i32 0
  %64 = load double, ptr %63, align 16
  store double %64, ptr %15, align 8
  %65 = load double, ptr %8, align 8
  %66 = load double, ptr %10, align 8
  %67 = fsub double %65, %66
  %68 = load double, ptr %11, align 8
  %69 = load double, ptr %7, align 8
  %70 = load double, ptr %9, align 8
  %71 = fsub double %69, %70
  %72 = fneg double %68
  %73 = call double @llvm.fmuladd.f64(double %72, double %71, double %67)
  %74 = load double, ptr %11, align 8
  %75 = load double, ptr %11, align 8
  %76 = call double @llvm.fmuladd.f64(double %74, double %75, double 1.000000e+00)
  %77 = call double @sqrt(double noundef %76) #5
  %78 = fdiv double %73, %77
  store double %78, ptr %13, align 8
  %79 = load i32, ptr %6, align 4
  %80 = icmp ne i32 %79, 0
  br i1 %80, label %81, label %99

81:                                               ; preds = %44
  %82 = load double, ptr %12, align 8
  %83 = load double, ptr %13, align 8
  %84 = fdiv double %82, %83
  %85 = fcmp olt double %84, 0.000000e+00
  br i1 %85, label %86, label %99

86:                                               ; preds = %81
  %87 = load double, ptr %14, align 8
  %88 = load double, ptr %12, align 8
  %89 = load double, ptr %12, align 8
  %90 = load double, ptr %13, align 8
  %91 = fsub double %89, %90
  %92 = fdiv double %88, %91
  %93 = load double, ptr %15, align 8
  %94 = load double, ptr %14, align 8
  %95 = fsub double %93, %94
  %96 = call double @llvm.fmuladd.f64(double %92, double %95, double %87)
  %97 = fdiv double 1.000000e+06, %96
  %98 = load ptr, ptr %4, align 8
  store double %97, ptr %98, align 8
  store i32 1, ptr %3, align 4
  br label %106

99:                                               ; preds = %81, %44
  %100 = load double, ptr %13, align 8
  store double %100, ptr %12, align 8
  %101 = load double, ptr %15, align 8
  store double %101, ptr %14, align 8
  br label %102

102:                                              ; preds = %99
  %103 = load i32, ptr %6, align 4
  %104 = add i32 %103, 1
  store i32 %104, ptr %6, align 4
  br label %40, !llvm.loop !6

105:                                              ; preds = %40
  store i32 0, ptr %3, align 4
  br label %106

106:                                              ; preds = %105, %86
  %107 = load i32, ptr %3, align 4
  ret i32 %107
}