; Function Attrs: nofree norecurse nosync nounwind memory(argmem: readwrite) uwtable
define hidden range(i32 0, 2) i32 @cmsTempFromWhitePoint(ptr nocapture noundef writeonly %0, ptr nocapture noundef readonly %1) local_unnamed_addr #4 {
  %3 = load double, ptr %1, align 8
  %4 = getelementptr inbounds i8, ptr %1, i64 8
  %5 = load double, ptr %4, align 8
  %6 = fmul double %3, 2.000000e+00
  %7 = fneg double %3
  %8 = tail call double @llvm.fmuladd.f64(double %5, double 6.000000e+00, double %7)
  %9 = fadd double %8, 1.500000e+00
  %10 = fdiv double %6, %9
  %11 = fmul double %5, 3.000000e+00
  %12 = fdiv double %11, %9
  br label %14

13:                                               ; preds = %14
  %indvars.iv.next = add nuw nsw i64 %indvars.iv, 1
  %exitcond.not = icmp eq i64 %indvars.iv.next, 31
  br i1 %exitcond.not, label %.loopexit, label %14, !llvm.loop !6

14:                                               ; preds = %2, %13
  %indvars.iv = phi i64 [ 0, %2 ], [ %indvars.iv.next, %13 ]
  %.03442 = phi double [ 0.000000e+00, %2 ], [ %28, %13 ]
  %.03541 = phi double [ 0.000000e+00, %2 ], [ %22, %13 ]
  %15 = getelementptr inbounds [31 x %struct.ISOTEMPERATURE], ptr @isotempdata, i64 0, i64 %indvars.iv
  %16 = getelementptr inbounds i8, ptr %15, i64 8
  %17 = load double, ptr %16, align 8
  %18 = getelementptr inbounds i8, ptr %15, i64 16
  %19 = load double, ptr %18, align 16
  %20 = getelementptr inbounds i8, ptr %15, i64 24
  %21 = load double, ptr %20, align 8
  %22 = load double, ptr %15, align 16
  %23 = fsub double %12, %19
  %24 = fsub double %10, %17
  %25 = fneg double %21
  %26 = tail call double @llvm.fmuladd.f64(double %25, double %24, double %23)
  %27 = tail call double @llvm.fmuladd.f64(double %21, double %21, double 1.000000e+00)
  %sqrt = tail call double @llvm.sqrt.f64(double %27)
  %28 = fdiv double %26, %sqrt
  %.not = icmp ne i64 %indvars.iv, 0
  %29 = fdiv double %.03442, %28
  %30 = fcmp olt double %29, 0.000000e+00
  %or.cond = select i1 %.not, i1 %30, i1 false
  br i1 %or.cond, label %31, label %13

31:                                               ; preds = %14
  %32 = fsub double %.03442, %28
  %33 = fdiv double %.03442, %32
  %34 = fsub double %22, %.03541
  %35 = tail call double @llvm.fmuladd.f64(double %33, double %34, double %.03541)
  %36 = fdiv double 1.000000e+06, %35
  store double %36, ptr %0, align 8
  br label %.loopexit

.loopexit:                                        ; preds = %13, %31
  %.0 = phi i32 [ 1, %31 ], [ 0, %13 ]
  ret i32 %.0
}